target datalayout = "e-m:e-p270:32:32-p271:32:32-p272:64:64-i64:64-i128:128-f80:128-n8:16:32:64-S128"
target triple = "x86_64-pc-linux-gnu"

%struct.ossl_quic_ack_range_st = type { i64, i64 }
%struct.OSSL_TIME = type { i64 }
%struct.ossl_quic_frame_ack_st = type { ptr, i64, %struct.OSSL_TIME, i64, i64, i64, i8 }

@.str.5 = private unnamed_addr constant [33 x i8] c"../openssl/test/quic_wire_test.c\00", align 1
@.str.8 = private unnamed_addr constant [2 x i8] c"1\00", align 1
@.str.28 = private unnamed_addr constant [18 x i8] c"peek_total_ranges\00", align 1
@.str.30 = private unnamed_addr constant [13 x i8] c"total_ranges\00", align 1
@.str.163 = private unnamed_addr constant [66 x i8] c"ossl_quic_wire_peek_frame_ack_num_ranges(pkt, &peek_total_ranges)\00", align 1
@.str.164 = private unnamed_addr constant [22 x i8] c"f.ack_ranges[i].start\00", align 1
@.str.165 = private unnamed_addr constant [20 x i8] c"f.ack_ranges[i].end\00", align 1
@.str.166 = private unnamed_addr constant [5 x i8] c"1000\00", align 1

; Function Attrs: nounwind uwtable
define internal i32 @ack_generic_decode(ptr noundef %0) #0 {
  %2 = alloca i32, align 4
  %3 = alloca ptr, align 8
  %4 = alloca [8 x %struct.ossl_quic_ack_range_st], align 16
  %5 = alloca %struct.ossl_quic_frame_ack_st, align 8
  %6 = alloca i64, align 8
  %7 = alloca i64, align 8
  %8 = alloca i32, align 4
  %9 = alloca i64, align 8
  %10 = alloca i32, align 4
  store ptr %0, ptr %3, align 8, !tbaa !40
  call void @llvm.lifetime.start.p0(i64 128, ptr %4) #5
  call void @llvm.memset.p0.i64(ptr align 16 %4, i8 0, i64 128, i1 false)
  call void @llvm.lifetime.start.p0(i64 56, ptr %5) #5
  call void @llvm.memset.p0.i64(ptr align 8 %5, i8 0, i64 56, i1 false)
  call void @llvm.lifetime.start.p0(i64 8, ptr %6) #5
  store i64 0, ptr %6, align 8, !tbaa !19
  call void @llvm.lifetime.start.p0(i64 8, ptr %7) #5
  store i64 0, ptr %7, align 8, !tbaa !19
  call void @llvm.lifetime.start.p0(i64 4, ptr %8) #5
  call void @llvm.lifetime.start.p0(i64 8, ptr %9) #5
  %11 = getelementptr inbounds [8 x %struct.ossl_quic_ack_range_st], ptr %4, i64 0, i64 0
  %12 = getelementptr inbounds nuw %struct.ossl_quic_frame_ack_st, ptr %5, i32 0, i32 0
  store ptr %11, ptr %12, align 8, !tbaa !46
  %13 = getelementptr inbounds nuw %struct.ossl_quic_frame_ack_st, ptr %5, i32 0, i32 1
  store i64 8, ptr %13, align 8, !tbaa !50
  %14 = load ptr, ptr %3, align 8, !tbaa !40
  %15 = call i32 @ossl_quic_wire_peek_frame_ack_num_ranges(ptr noundef %14, ptr noundef %7)
  %16 = call i32 @test_int_eq(ptr noundef @.str.5, i32 noundef 1389, ptr noundef @.str.163, ptr noundef @.str.8, i32 noundef %15, i32 noundef 1)
  %17 = icmp ne i32 %16, 0
  br i1 %17, label %19, label %18

18:                                               ; preds = %1
  store i32 0, ptr %2, align 4
  store i32 1, ptr %10, align 4
  br label %68

19:                                               ; preds = %1
  %20 = load ptr, ptr %3, align 8, !tbaa !40
  %21 = call i32 @ossl_quic_wire_decode_frame_ack(ptr noundef %20, i32 noundef 3, ptr noundef %5, ptr noundef %6)
  store i32 %21, ptr %8, align 4, !tbaa !4
  %22 = load i32, ptr %8, align 4, !tbaa !4
  %23 = icmp eq i32 %22, 0
  br i1 %23, label %24, label %25

24:                                               ; preds = %19
  store i32 0, ptr %2, align 4
  store i32 1, ptr %10, align 4
  br label %68

25:                                               ; preds = %19
  %26 = load i64, ptr %6, align 8, !tbaa !19
  %27 = load i64, ptr %7, align 8, !tbaa !19
  %28 = call i32 @test_uint64_t_eq(ptr noundef @.str.5, i32 noundef 1396, ptr noundef @.str.30, ptr noundef @.str.28, i64 noundef %26, i64 noundef %27)
  %29 = icmp ne i32 %28, 0
  br i1 %29, label %31, label %30

30:                                               ; preds = %25
  store i32 0, ptr %2, align 4
  store i32 1, ptr %10, align 4
  br label %68

31:                                               ; preds = %25
  store i64 0, ptr %9, align 8, !tbaa !19
  br label %32

32:                                               ; preds = %64, %31
  %33 = load i64, ptr %9, align 8, !tbaa !19
  %34 = getelementptr inbounds nuw %struct.ossl_quic_frame_ack_st, ptr %5, i32 0, i32 1
  %35 = load i64, ptr %34, align 8, !tbaa !50
  %36 = icmp ult i64 %33, %35
  br i1 %36, label %37, label %67

37:                                               ; preds = %32
  %38 = getelementptr inbounds nuw %struct.ossl_quic_frame_ack_st, ptr %5, i32 0, i32 0
  %39 = load ptr, ptr %38, align 8, !tbaa !46
  %40 = load i64, ptr %9, align 8, !tbaa !19
  %41 = getelementptr inbounds nuw %struct.ossl_quic_ack_range_st, ptr %39, i64 %40
  %42 = getelementptr inbounds nuw %struct.ossl_quic_ack_range_st, ptr %41, i32 0, i32 0
  %43 = load i64, ptr %42, align 8, !tbaa !76
  %44 = getelementptr inbounds nuw %struct.ossl_quic_frame_ack_st, ptr %5, i32 0, i32 0
  %45 = load ptr, ptr %44, align 8, !tbaa !46
  %46 = load i64, ptr %9, align 8, !tbaa !19
  %47 = getelementptr inbounds nuw %struct.ossl_quic_ack_range_st, ptr %45, i64 %46
  %48 = getelementptr inbounds nuw %struct.ossl_quic_ack_range_st, ptr %47, i32 0, i32 1
  %49 = load i64, ptr %48, align 8, !tbaa !78
  %50 = call i32 @test_uint64_t_le(ptr noundef @.str.5, i32 noundef 1400, ptr noundef @.str.164, ptr noundef @.str.165, i64 noundef %43, i64 noundef %49)
  %51 = icmp ne i32 %50, 0
  br i1 %51, label %53, label %52

52:                                               ; preds = %37
  store i32 0, ptr %2, align 4
  store i32 1, ptr %10, align 4
  br label %68

53:                                               ; preds = %37
  %54 = getelementptr inbounds nuw %struct.ossl_quic_frame_ack_st, ptr %5, i32 0, i32 0
  %55 = load ptr, ptr %54, align 8, !tbaa !46
  %56 = load i64, ptr %9, align 8, !tbaa !19
  %57 = getelementptr inbounds nuw %struct.ossl_quic_ack_range_st, ptr %55, i64 %56
  %58 = getelementptr inbounds nuw %struct.ossl_quic_ack_range_st, ptr %57, i32 0, i32 1
  %59 = load i64, ptr %58, align 8, !tbaa !78
  %60 = call i32 @test_uint64_t_lt(ptr noundef @.str.5, i32 noundef 1402, ptr noundef @.str.165, ptr noundef @.str.166, i64 noundef %59, i64 noundef 1000)
  %61 = icmp ne i32 %60, 0
  br i1 %61, label %63, label %62

62:                                               ; preds = %53
  store i32 0, ptr %2, align 4
  store i32 1, ptr %10, align 4
  br label %68

63:                                               ; preds = %53
  br label %64

64:                                               ; preds = %63
  %65 = load i64, ptr %9, align 8, !tbaa !19
  %66 = add i64 %65, 1
  store i64 %66, ptr %9, align 8, !tbaa !19
  br label %32, !llvm.loop !79

67:                                               ; preds = %32
  store i32 1, ptr %2, align 4
  store i32 1, ptr %10, align 4
  br label %68

68:                                               ; preds = %67, %62, %52, %30, %24, %18
  call void @llvm.lifetime.end.p0(i64 8, ptr %9) #5
  call void @llvm.lifetime.end.p0(i64 4, ptr %8) #5
  call void @llvm.lifetime.end.p0(i64 8, ptr %7) #5
  call void @llvm.lifetime.end.p0(i64 8, ptr %6) #5
  call void @llvm.lifetime.end.p0(i64 56, ptr %5) #5
  call void @llvm.lifetime.end.p0(i64 128, ptr %4) #5
  %69 = load i32, ptr %2, align 4
  ret i32 %69
}