; Function Attrs: nounwind uwtable
define internal range(i32 0, 2) i32 @ack_generic_decode(ptr noundef %0) #0 {
  %2 = alloca [8 x %struct.ossl_quic_ack_range_st], align 16
  %3 = alloca %struct.ossl_quic_frame_ack_st, align 8
  %4 = alloca i64, align 8
  %5 = alloca i64, align 8
  call void @llvm.lifetime.start.p0(i64 128, ptr nonnull %2) #4
  call void @llvm.memset.p0.i64(ptr noundef nonnull align 16 dereferenceable(128) %2, i8 0, i64 128, i1 false)
  call void @llvm.lifetime.start.p0(i64 56, ptr nonnull %3) #4
  %6 = getelementptr inbounds nuw i8, ptr %3, i64 16
  call void @llvm.memset.p0.i64(ptr noundef nonnull align 8 dereferenceable(56) %6, i8 0, i64 40, i1 false)
  call void @llvm.lifetime.start.p0(i64 8, ptr nonnull %4) #4
  store i64 0, ptr %4, align 8, !tbaa !13
  call void @llvm.lifetime.start.p0(i64 8, ptr nonnull %5) #4
  store i64 0, ptr %5, align 8, !tbaa !13
  store ptr %2, ptr %3, align 8, !tbaa !34
  %7 = getelementptr inbounds nuw i8, ptr %3, i64 8
  store i64 8, ptr %7, align 8, !tbaa !38
  %8 = call i32 @ossl_quic_wire_peek_frame_ack_num_ranges(ptr noundef %0, ptr noundef nonnull %5) #4
  %9 = call i32 @test_int_eq(ptr noundef nonnull @.str.5, i32 noundef 1389, ptr noundef nonnull @.str.163, ptr noundef nonnull @.str.8, i32 noundef %8, i32 noundef 1) #4
  %.not = icmp eq i32 %9, 0
  br i1 %.not, label %.loopexit, label %10

10:                                               ; preds = %1
  %11 = call i32 @ossl_quic_wire_decode_frame_ack(ptr noundef %0, i32 noundef 3, ptr noundef nonnull %3, ptr noundef nonnull %4) #4
  %12 = icmp eq i32 %11, 0
  br i1 %12, label %.loopexit, label %13

13:                                               ; preds = %10
  %14 = load i64, ptr %4, align 8, !tbaa !13
  %15 = load i64, ptr %5, align 8, !tbaa !13
  %16 = call i32 @test_uint64_t_eq(ptr noundef nonnull @.str.5, i32 noundef 1396, ptr noundef nonnull @.str.30, ptr noundef nonnull @.str.28, i64 noundef %14, i64 noundef %15) #4
  %.not9 = icmp eq i32 %16, 0
  br i1 %.not9, label %.loopexit, label %.preheader

.preheader:                                       ; preds = %13
  %17 = load i64, ptr %7, align 8, !tbaa !38
  %.not17 = icmp eq i64 %17, 0
  br i1 %.not17, label %.loopexit, label %.lr.ph

18:                                               ; preds = %28
  %19 = add nuw i64 %.012, 1
  %20 = load i64, ptr %7, align 8, !tbaa !38
  %21 = icmp ult i64 %19, %20
  br i1 %21, label %.lr.ph, label %.loopexit, !llvm.loop !63

.lr.ph:                                           ; preds = %.preheader, %18
  %.012 = phi i64 [ %19, %18 ], [ 0, %.preheader ]
  %22 = load ptr, ptr %3, align 8, !tbaa !34
  %23 = getelementptr inbounds nuw %struct.ossl_quic_ack_range_st, ptr %22, i64 %.012
  %24 = load i64, ptr %23, align 8, !tbaa !64
  %25 = getelementptr inbounds nuw i8, ptr %23, i64 8
  %26 = load i64, ptr %25, align 8, !tbaa !66
  %27 = call i32 @test_uint64_t_le(ptr noundef nonnull @.str.5, i32 noundef 1400, ptr noundef nonnull @.str.164, ptr noundef nonnull @.str.165, i64 noundef %24, i64 noundef %26) #4
  %.not10 = icmp eq i32 %27, 0
  br i1 %.not10, label %.loopexit, label %28

28:                                               ; preds = %.lr.ph
  %29 = load ptr, ptr %3, align 8, !tbaa !34
  %30 = getelementptr inbounds nuw %struct.ossl_quic_ack_range_st, ptr %29, i64 %.012, i32 1
  %31 = load i64, ptr %30, align 8, !tbaa !66
  %32 = call i32 @test_uint64_t_lt(ptr noundef nonnull @.str.5, i32 noundef 1402, ptr noundef nonnull @.str.165, ptr noundef nonnull @.str.166, i64 noundef %31, i64 noundef 1000) #4
  %.not11 = icmp eq i32 %32, 0
  br i1 %.not11, label %.loopexit, label %18

.loopexit:                                        ; preds = %.lr.ph, %28, %18, %.preheader, %13, %10, %1
  %.08 = phi i32 [ 0, %1 ], [ 0, %10 ], [ 0, %13 ], [ 1, %.preheader ], [ 0, %.lr.ph ], [ 0, %28 ], [ 1, %18 ]
  call void @llvm.lifetime.end.p0(i64 8, ptr nonnull %5) #4
  call void @llvm.lifetime.end.p0(i64 8, ptr nonnull %4) #4
  call void @llvm.lifetime.end.p0(i64 56, ptr nonnull %3) #4
  call void @llvm.lifetime.end.p0(i64 128, ptr nonnull %2) #4
  ret i32 %.08
}